; Function Attrs: mustprogress uwtable
define hidden noundef ptr @_ZN9format_ns9mk_stringER11ast_managerPKc(ptr noundef nonnull align 8 dereferenceable(976) %0, ptr noundef %1) local_unnamed_addr #3 personality ptr @__gxx_personality_v0 {
  %3 = alloca %class.symbol, align 8
  %4 = alloca %class.parameter, align 8
  call void @llvm.lifetime.start.p0(i64 8, ptr nonnull %3) #20
  call void @_ZN6symbolC1EPKc(ptr noundef nonnull align 8 dereferenceable(8) %3, ptr noundef %1)
  call void @llvm.lifetime.start.p0(i64 16, ptr nonnull %4) #20
  %5 = load i64, ptr %3, align 8, !tbaa !108
  store i64 %5, ptr %4, align 8, !tbaa !108
  %6 = getelementptr inbounds nuw i8, ptr %4, i64 8
  store i8 2, ptr %6, align 8, !tbaa !109
  %7 = getelementptr inbounds nuw i8, ptr %0, i64 928
  %8 = load ptr, ptr %7, align 8, !tbaa !3
  %9 = invoke noundef i32 @_ZN9format_ns20get_format_family_idER11ast_manager(ptr noundef nonnull align 8 dereferenceable(976) %0)
          to label %_ZN9format_nsL3fidER11ast_manager.exit unwind label %14

_ZN9format_nsL3fidER11ast_manager.exit:           ; preds = %2
  %10 = icmp eq ptr %8, null
  %11 = select i1 %10, ptr %0, ptr %8
  %12 = invoke noundef ptr @_ZN11ast_manager6mk_appEiijPK9parameterjPKP4exprP4sort(ptr noundef nonnull align 8 dereferenceable(976) %11, i32 noundef %9, i32 noundef 1, i32 noundef 1, ptr noundef nonnull %4, i32 noundef 0, ptr noundef null, ptr noundef null)
          to label %13 unwind label %14

13:                                               ; preds = %_ZN9format_nsL3fidER11ast_manager.exit
  call void @_ZN9parameterD1Ev(ptr noundef nonnull align 8 dereferenceable(16) %4) #20
  call void @llvm.lifetime.end.p0(i64 16, ptr nonnull %4) #20
  call void @llvm.lifetime.end.p0(i64 8, ptr nonnull %3) #20
  ret ptr %12

14:                                               ; preds = %2, %_ZN9format_nsL3fidER11ast_manager.exit
  %15 = landingpad { ptr, i32 }
          cleanup
  call void @_ZN9parameterD1Ev(ptr noundef nonnull align 8 dereferenceable(16) %4) #20
  call void @llvm.lifetime.end.p0(i64 16, ptr nonnull %4) #20
  call void @llvm.lifetime.end.p0(i64 8, ptr nonnull %3) #20
  resume { ptr, i32 } %15
}